target datalayout = "e-m:e-p270:32:32-p271:32:32-p272:64:64-i64:64-i128:128-f80:128-n8:16:32:64-S128"
target triple = "x86_64-unknown-linux-gnu"

%struct.QEnumLookup = type { ptr, ptr, i32 }
%struct.VFIODevice = type { %struct.anon, %struct.anon.0, %struct.anon.1, ptr, ptr, ptr, ptr, ptr, i32, i32, i8, i8, i8, i8, i32, ptr, i32, i32, i32, ptr, ptr, i32, i8, i8 }
%struct.anon = type { ptr, ptr }
%struct.anon.0 = type { ptr, ptr }
%struct.anon.1 = type { ptr, ptr }
%struct.VFIOMigration = type { ptr, ptr, %struct.Notifier, i32, i32, ptr, i64, i64, i64, i64, i8 }
%struct.Notifier = type { ptr, %struct.anon.2 }
%struct.anon.2 = type { ptr, ptr }
%struct.MigrationState = type { %struct.DeviceState, %struct.QemuThread, ptr, ptr, ptr, ptr, %struct.QemuSemaphore, ptr, %struct.QemuMutex, %struct.QemuSemaphore, i64, double, i64, i64, i64, %struct.MigrationParameters, i32, %struct.anon.4, double, i64, i64, i64, i64, i64, [23 x i8], i64, i32, i8, i8, i8, i8, %struct.QemuSemaphore, %struct.QemuSemaphore, %struct.QemuSemaphore, %struct.QemuEvent, i64, ptr, ptr, %struct.QemuMutex, i8, i8, i8, i8, %struct.QemuSemaphore, i8, i8, i8, i8, ptr, ptr, i8, i8 }
%struct.DeviceState = type { %struct.Object, ptr, ptr, i8, i8, i64, ptr, i32, i8, ptr, %struct.NamedGPIOListHead, %struct.NamedClockListHead, %struct.BusStateHead, i32, i32, i32, %struct.ResettableState, ptr, %struct.MemReentrancyGuard }
%struct.Object = type { ptr, ptr, ptr, i32, ptr }
%struct.NamedGPIOListHead = type { ptr }
%struct.NamedClockListHead = type { ptr }
%struct.BusStateHead = type { ptr }
%struct.ResettableState = type { i32, i8, i8 }
%struct.MemReentrancyGuard = type { i8 }
%struct.QemuThread = type { i64 }
%struct.MigrationParameters = type { i8, i64, i8, i64, i8, i64, i8, i64, i8, i8, i8, i8, i8, i8, i8, i8, i8, i8, i8, i8, i8, i8, i8, i8, ptr, ptr, ptr, i8, i64, i8, i64, i8, i64, i8, i32, i8, i8, i8, i8, i8, i64, i8, i64, i8, i8, i8, i32, i8, i8, i8, i8, i8, ptr, i8, i64, i8, i64, i8, i32 }
%struct.anon.4 = type { ptr, %struct.QemuThread, i8, %struct.QemuSemaphore, %struct.QemuSemaphore }
%struct.QemuEvent = type { i32, i8 }
%struct.QemuMutex = type { %union.pthread_mutex_t, i8 }
%union.pthread_mutex_t = type { %struct.__pthread_mutex_s }
%struct.__pthread_mutex_s = type { i32, i32, i32, i32, i32, i16, i16, %struct.__pthread_internal_list }
%struct.__pthread_internal_list = type { ptr, ptr }
%struct.QemuSemaphore = type { %struct.QemuMutex, %struct.QemuCond, i32 }
%struct.QemuCond = type { %union.pthread_cond_t, i8 }
%union.pthread_cond_t = type { %struct.__pthread_cond_s }
%struct.__pthread_cond_s = type { %union.__atomic_wide_counter, %union.__atomic_wide_counter, [2 x i32], [2 x i32], i32, i32, [2 x i32] }
%union.__atomic_wide_counter = type { i64 }
%struct.timeval = type { i64, i64 }

@trace_events_enabled_count = external global i32, align 4
@message_with_timestamp = external global i8, align 1
@qemu_loglevel = external global i32, align 4
@.str.23 = private unnamed_addr constant [6 x i8] c"ERROR\00", align 1
@.str.24 = private unnamed_addr constant [5 x i8] c"STOP\00", align 1
@.str.25 = private unnamed_addr constant [8 x i8] c"RUNNING\00", align 1
@.str.26 = private unnamed_addr constant [10 x i8] c"STOP_COPY\00", align 1
@.str.27 = private unnamed_addr constant [9 x i8] c"RESUMING\00", align 1
@.str.28 = private unnamed_addr constant [12 x i8] c"RUNNING_P2P\00", align 1
@.str.29 = private unnamed_addr constant [9 x i8] c"PRE_COPY\00", align 1
@.str.30 = private unnamed_addr constant [13 x i8] c"PRE_COPY_P2P\00", align 1
@.str.31 = private unnamed_addr constant [14 x i8] c"UNKNOWN STATE\00", align 1
@RunState_lookup = external constant %struct.QEnumLookup, align 8
@_TRACE_VFIO_VMSTATE_CHANGE_PREPARE_DSTATE = external global i16, align 2
@.str.62 = private unnamed_addr constant [85 x i8] c"%d@%zu.%06zu:vfio_vmstate_change_prepare  (%s) running %d reason %s device state %s\0A\00", align 1
@.str.63 = private unnamed_addr constant [72 x i8] c"vfio_vmstate_change_prepare  (%s) running %d reason %s device state %s\0A\00", align 1

; Function Attrs: nounwind sspstrong uwtable
define internal zeroext i1 @qemu_loglevel_mask(i32 noundef %mask) #0 {
entry:
  %mask.addr = alloca i32, align 4
  store i32 %mask, ptr %mask.addr, align 4
  %0 = load i32, ptr @qemu_loglevel, align 4
  %1 = load i32, ptr %mask.addr, align 4
  %and = and i32 %0, %1
  %cmp = icmp ne i32 %and, 0
  ret i1 %cmp
}

; Function Attrs: nounwind sspstrong uwtable
define internal void @_nocheck__trace_vfio_vmstate_change_prepare(ptr noundef %name, i32 noundef %running, ptr noundef %reason, ptr noundef %dev_state) #0 {
entry:
  %name.addr = alloca ptr, align 8
  %running.addr = alloca i32, align 4
  %reason.addr = alloca ptr, align 8
  %dev_state.addr = alloca ptr, align 8
  %_now = alloca %struct.timeval, align 8
  store ptr %name, ptr %name.addr, align 8
  store i32 %running, ptr %running.addr, align 4
  store ptr %reason, ptr %reason.addr, align 8
  store ptr %dev_state, ptr %dev_state.addr, align 8
  %0 = load i32, ptr @trace_events_enabled_count, align 4
  %tobool = icmp ne i32 %0, 0
  %lnot = xor i1 %tobool, true
  %lnot1 = xor i1 %lnot, true
  %lnot.ext = zext i1 %lnot1 to i32
  %conv = sext i32 %lnot.ext to i64
  %tobool2 = icmp ne i64 %conv, 0
  br i1 %tobool2, label %land.lhs.true, label %if.end11

land.lhs.true:                                    ; preds = %entry
  %1 = load i16, ptr @_TRACE_VFIO_VMSTATE_CHANGE_PREPARE_DSTATE, align 2
  %conv3 = zext i16 %1 to i32
  %tobool4 = icmp ne i32 %conv3, 0
  br i1 %tobool4, label %land.lhs.true5, label %if.end11

land.lhs.true5:                                   ; preds = %land.lhs.true
  %call = call zeroext i1 @qemu_loglevel_mask(i32 noundef 32768)
  br i1 %call, label %if.then, label %if.end11

if.then:                                          ; preds = %land.lhs.true5
  %2 = load i8, ptr @message_with_timestamp, align 1
  %tobool7 = trunc i8 %2 to i1
  br i1 %tobool7, label %if.then8, label %if.else

if.then8:                                         ; preds = %if.then
  %call9 = call i32 @gettimeofday(ptr noundef %_now, ptr noundef null) #9
  %call10 = call i32 @qemu_get_thread_id()
  %tv_sec = getelementptr inbounds %struct.timeval, ptr %_now, i32 0, i32 0
  %3 = load i64, ptr %tv_sec, align 8
  %tv_usec = getelementptr inbounds %struct.timeval, ptr %_now, i32 0, i32 1
  %4 = load i64, ptr %tv_usec, align 8
  %5 = load ptr, ptr %name.addr, align 8
  %6 = load i32, ptr %running.addr, align 4
  %7 = load ptr, ptr %reason.addr, align 8
  %8 = load ptr, ptr %dev_state.addr, align 8
  call void (ptr, ...) @qemu_log(ptr noundef @.str.62, i32 noundef %call10, i64 noundef %3, i64 noundef %4, ptr noundef %5, i32 noundef %6, ptr noundef %7, ptr noundef %8)
  br label %if.end

if.else:                                          ; preds = %if.then
  %9 = load ptr, ptr %name.addr, align 8
  %10 = load i32, ptr %running.addr, align 4
  %11 = load ptr, ptr %reason.addr, align 8
  %12 = load ptr, ptr %dev_state.addr, align 8
  call void (ptr, ...) @qemu_log(ptr noundef @.str.63, ptr noundef %9, i32 noundef %10, ptr noundef %11, ptr noundef %12)
  br label %if.end

if.end:                                           ; preds = %if.else, %if.then8
  br label %if.end11

if.end11:                                         ; preds = %if.end, %land.lhs.true5, %land.lhs.true, %entry
  ret void
}

; Function Attrs: nounwind sspstrong uwtable
define internal void @trace_vfio_vmstate_change_prepare(ptr noundef %name, i32 noundef %running, ptr noundef %reason, ptr noundef %dev_state) #0 {
entry:
  %name.addr = alloca ptr, align 8
  %running.addr = alloca i32, align 4
  %reason.addr = alloca ptr, align 8
  %dev_state.addr = alloca ptr, align 8
  store ptr %name, ptr %name.addr, align 8
  store i32 %running, ptr %running.addr, align 4
  store ptr %reason, ptr %reason.addr, align 8
  store ptr %dev_state, ptr %dev_state.addr, align 8
  %0 = load ptr, ptr %name.addr, align 8
  %1 = load i32, ptr %running.addr, align 4
  %2 = load ptr, ptr %reason.addr, align 8
  %3 = load ptr, ptr %dev_state.addr, align 8
  call void @_nocheck__trace_vfio_vmstate_change_prepare(ptr noundef %0, i32 noundef %1, ptr noundef %2, ptr noundef %3)
  ret void
}

; Function Attrs: nounwind sspstrong uwtable
define internal ptr @mig_state_to_str(i32 noundef %state) #0 {
entry:
  %retval = alloca ptr, align 8
  %state.addr = alloca i32, align 4
  store i32 %state, ptr %state.addr, align 4
  %0 = load i32, ptr %state.addr, align 4
  switch i32 %0, label %sw.default [
    i32 0, label %sw.bb
    i32 1, label %sw.bb1
    i32 2, label %sw.bb2
    i32 3, label %sw.bb3
    i32 4, label %sw.bb4
    i32 5, label %sw.bb5
    i32 6, label %sw.bb6
    i32 7, label %sw.bb7
  ]

sw.bb:                                            ; preds = %entry
  store ptr @.str.23, ptr %retval, align 8
  br label %return

sw.bb1:                                           ; preds = %entry
  store ptr @.str.24, ptr %retval, align 8
  br label %return

sw.bb2:                                           ; preds = %entry
  store ptr @.str.25, ptr %retval, align 8
  br label %return

sw.bb3:                                           ; preds = %entry
  store ptr @.str.26, ptr %retval, align 8
  br label %return

sw.bb4:                                           ; preds = %entry
  store ptr @.str.27, ptr %retval, align 8
  br label %return

sw.bb5:                                           ; preds = %entry
  store ptr @.str.28, ptr %retval, align 8
  br label %return

sw.bb6:                                           ; preds = %entry
  store ptr @.str.29, ptr %retval, align 8
  br label %return

sw.bb7:                                           ; preds = %entry
  store ptr @.str.30, ptr %retval, align 8
  br label %return

sw.default:                                       ; preds = %entry
  store ptr @.str.31, ptr %retval, align 8
  br label %return

return:                                           ; preds = %sw.default, %sw.bb7, %sw.bb6, %sw.bb5, %sw.bb4, %sw.bb3, %sw.bb2, %sw.bb1, %sw.bb
  %1 = load ptr, ptr %retval, align 8
  ret ptr %1
}

; Function Attrs: nounwind sspstrong uwtable
define internal void @vfio_vmstate_change_prepare(ptr noundef %opaque, i1 noundef zeroext %running, i32 noundef %state) #0 {
entry:
  %opaque.addr = alloca ptr, align 8
  %running.addr = alloca i8, align 1
  %state.addr = alloca i32, align 4
  %vbasedev = alloca ptr, align 8
  %migration = alloca ptr, align 8
  %new_state = alloca i32, align 4
  %ret = alloca i32, align 4
  store ptr %opaque, ptr %opaque.addr, align 8
  %frombool = zext i1 %running to i8
  store i8 %frombool, ptr %running.addr, align 1
  store i32 %state, ptr %state.addr, align 4
  %0 = load ptr, ptr %opaque.addr, align 8
  store ptr %0, ptr %vbasedev, align 8
  %1 = load ptr, ptr %vbasedev, align 8
  %migration1 = getelementptr inbounds %struct.VFIODevice, ptr %1, i32 0, i32 19
  %2 = load ptr, ptr %migration1, align 8
  store ptr %2, ptr %migration, align 8
  %3 = load ptr, ptr %migration, align 8
  %device_state = getelementptr inbounds %struct.VFIOMigration, ptr %3, i32 0, i32 3
  %4 = load i32, ptr %device_state, align 8
  %cmp = icmp eq i32 %4, 6
  %cond = select i1 %cmp, i32 7, i32 5
  store i32 %cond, ptr %new_state, align 4
  %5 = load ptr, ptr %vbasedev, align 8
  %6 = load i32, ptr %new_state, align 4
  %call = call i32 @vfio_migration_set_state(ptr noundef %5, i32 noundef %6, i32 noundef 0)
  store i32 %call, ptr %ret, align 4
  %7 = load i32, ptr %ret, align 4
  %tobool = icmp ne i32 %7, 0
  br i1 %tobool, label %if.then, label %if.end7

if.then:                                          ; preds = %entry
  %call2 = call ptr @migrate_get_current()
  %to_dst_file = getelementptr inbounds %struct.MigrationState, ptr %call2, i32 0, i32 4
  %8 = load ptr, ptr %to_dst_file, align 8
  %tobool3 = icmp ne ptr %8, null
  br i1 %tobool3, label %if.then4, label %if.end

if.then4:                                         ; preds = %if.then
  %call5 = call ptr @migrate_get_current()
  %to_dst_file6 = getelementptr inbounds %struct.MigrationState, ptr %call5, i32 0, i32 4
  %9 = load ptr, ptr %to_dst_file6, align 8
  %10 = load i32, ptr %ret, align 4
  call void @qemu_file_set_error(ptr noundef %9, i32 noundef %10)
  br label %if.end

if.end:                                           ; preds = %if.then4, %if.then
  br label %if.end7

if.end7:                                          ; preds = %if.end, %entry
  %11 = load ptr, ptr %vbasedev, align 8
  %name = getelementptr inbounds %struct.VFIODevice, ptr %11, i32 0, i32 6
  %12 = load ptr, ptr %name, align 8
  %13 = load i8, ptr %running.addr, align 1
  %tobool8 = trunc i8 %13 to i1
  %conv = zext i1 %tobool8 to i32
  %14 = load i32, ptr %state.addr, align 4
  %call9 = call ptr @qapi_enum_lookup(ptr noundef @RunState_lookup, i32 noundef %14)
  %15 = load i32, ptr %new_state, align 4
  %call10 = call ptr @mig_state_to_str(i32 noundef %15)
  call void @trace_vfio_vmstate_change_prepare(ptr noundef %12, i32 noundef %conv, ptr noundef %call9, ptr noundef %call10)
  ret void
}