; Function Attrs: nounwind sspstrong uwtable
define internal void @vfio_vmstate_change_prepare(ptr noundef readonly captures(none) %opaque, i1 noundef zeroext %running, i32 noundef %state) #2 {
entry:
  %_now.i.i = alloca %struct.timeval, align 8
  %migration1 = getelementptr inbounds nuw i8, ptr %opaque, i64 128
  %0 = load ptr, ptr %migration1, align 8
  %device_state = getelementptr inbounds nuw i8, ptr %0, i64 40
  %1 = load i32, ptr %device_state, align 8
  %cmp = icmp eq i32 %1, 6
  %cond = select i1 %cmp, i32 7, i32 5
  %call = tail call fastcc i32 @vfio_migration_set_state(ptr noundef %opaque, i32 noundef %cond, i32 noundef 0)
  %tobool.not = icmp eq i32 %call, 0
  br i1 %tobool.not, label %if.end7, label %if.then

if.then:                                          ; preds = %entry
  %call2 = tail call ptr @migrate_get_current() #16
  %to_dst_file = getelementptr inbounds nuw i8, ptr %call2, i64 184
  %2 = load ptr, ptr %to_dst_file, align 8
  %tobool3.not = icmp eq ptr %2, null
  br i1 %tobool3.not, label %if.end7, label %if.then4

if.then4:                                         ; preds = %if.then
  %call5 = tail call ptr @migrate_get_current() #16
  %to_dst_file6 = getelementptr inbounds nuw i8, ptr %call5, i64 184
  %3 = load ptr, ptr %to_dst_file6, align 8
  tail call void @qemu_file_set_error(ptr noundef %3, i32 noundef %call) #16
  br label %if.end7

if.end7:                                          ; preds = %if.then, %if.then4, %entry
  %name = getelementptr inbounds nuw i8, ptr %opaque, i64 72
  %4 = load ptr, ptr %name, align 8
  %conv = zext i1 %running to i32
  %call9 = tail call ptr @qapi_enum_lookup(ptr noundef nonnull @RunState_lookup, i32 noundef %state) #16
  %.str.30..str.28 = select i1 %cmp, ptr @.str.30, ptr @.str.28
  call void @llvm.lifetime.start.p0(i64 16, ptr nonnull %_now.i.i)
  %5 = load i32, ptr @trace_events_enabled_count, align 4
  %tobool.i.i = icmp ne i32 %5, 0
  %6 = load i16, ptr @_TRACE_VFIO_VMSTATE_CHANGE_PREPARE_DSTATE, align 2
  %tobool4.i.i = icmp ne i16 %6, 0
  %or.cond.i.i = select i1 %tobool.i.i, i1 %tobool4.i.i, i1 false
  br i1 %or.cond.i.i, label %land.lhs.true5.i.i, label %trace_vfio_vmstate_change_prepare.exit

land.lhs.true5.i.i:                               ; preds = %if.end7
  %7 = load i32, ptr @qemu_loglevel, align 4
  %and.i.i.i = and i32 %7, 32768
  %cmp.i.not.i.i = icmp eq i32 %and.i.i.i, 0
  br i1 %cmp.i.not.i.i, label %trace_vfio_vmstate_change_prepare.exit, label %if.then.i.i

if.then.i.i:                                      ; preds = %land.lhs.true5.i.i
  %8 = load i8, ptr @message_with_timestamp, align 1
  %tobool7.i.i = trunc i8 %8 to i1
  br i1 %tobool7.i.i, label %if.then8.i.i, label %if.else.i.i

if.then8.i.i:                                     ; preds = %if.then.i.i
  %call9.i.i = call i32 @gettimeofday(ptr noundef nonnull %_now.i.i, ptr noundef null) #16
  %call10.i.i = tail call i32 @qemu_get_thread_id() #16
  %9 = load i64, ptr %_now.i.i, align 8
  %tv_usec.i.i = getelementptr inbounds nuw i8, ptr %_now.i.i, i64 8
  %10 = load i64, ptr %tv_usec.i.i, align 8
  tail call void (ptr, ...) @qemu_log(ptr noundef nonnull @.str.62, i32 noundef %call10.i.i, i64 noundef %9, i64 noundef %10, ptr noundef %4, i32 noundef range(i32 0, 2) %conv, ptr noundef %call9, ptr noundef nonnull %.str.30..str.28) #16
  br label %trace_vfio_vmstate_change_prepare.exit

if.else.i.i:                                      ; preds = %if.then.i.i
  tail call void (ptr, ...) @qemu_log(ptr noundef nonnull @.str.63, ptr noundef %4, i32 noundef range(i32 0, 2) %conv, ptr noundef %call9, ptr noundef nonnull %.str.30..str.28) #16
  br label %trace_vfio_vmstate_change_prepare.exit

trace_vfio_vmstate_change_prepare.exit:           ; preds = %if.end7, %land.lhs.true5.i.i, %if.then8.i.i, %if.else.i.i
  call void @llvm.lifetime.end.p0(i64 16, ptr nonnull %_now.i.i)
  ret void
}